
_setnice:     file format elf32-i386


Disassembly of section .text:

00000000 <main>:
#include "user.h"
#include "stat.h"
#include "fcntl.h"

int main(int argc, char *argv[])
{
   0:	8d 4c 24 04          	lea    0x4(%esp),%ecx
   4:	83 e4 f0             	and    $0xfffffff0,%esp
   7:	ff 71 fc             	pushl  -0x4(%ecx)
   a:	55                   	push   %ebp
   b:	89 e5                	mov    %esp,%ebp
   d:	56                   	push   %esi
   e:	53                   	push   %ebx
   f:	51                   	push   %ecx
  10:	83 ec 0c             	sub    $0xc,%esp
  int pid, value, result;

  if(argc !=  3)
  13:	83 39 03             	cmpl   $0x3,(%ecx)
{
  16:	8b 59 04             	mov    0x4(%ecx),%ebx
  if(argc !=  3)
  19:	74 13                	je     2e <main+0x2e>
  {
    printf(2, "WRONG USAGE!\nUSAGE: setnice (pid) (value)\n");
  1b:	50                   	push   %eax
  1c:	50                   	push   %eax
  1d:	68 b8 07 00 00       	push   $0x7b8
  22:	6a 02                	push   $0x2
  24:	e8 37 04 00 00       	call   460 <printf>
    exit();
  29:	e8 c4 02 00 00       	call   2f2 <exit>
  }

  pid = atoi(argv[1]);
  2e:	83 ec 0c             	sub    $0xc,%esp
  31:	ff 73 04             	pushl  0x4(%ebx)
  34:	e8 47 02 00 00       	call   280 <atoi>
  39:	89 c6                	mov    %eax,%esi
  value = atoi(argv[2]);
  3b:	58                   	pop    %eax
  3c:	ff 73 08             	pushl  0x8(%ebx)
  3f:	e8 3c 02 00 00       	call   280 <atoi>

  if( value < 0 || value >= 40)
  44:	83 c4 10             	add    $0x10,%esp
  47:	83 f8 27             	cmp    $0x27,%eax
  value = atoi(argv[2]);
  4a:	89 c3                	mov    %eax,%ebx
  if( value < 0 || value >= 40)
  4c:	77 26                	ja     74 <main+0x74>
  {
    printf(2, "INVALID PRIORITY VALUE. RANGE: (0~39). \n");
    exit();
  }

  result = setnice(pid, value);
  4e:	52                   	push   %edx
  4f:	52                   	push   %edx
  50:	50                   	push   %eax
  51:	56                   	push   %esi
  52:	e8 53 03 00 00       	call   3aa <setnice>
  
  if(result == 0)
  57:	83 c4 10             	add    $0x10,%esp
  5a:	85 c0                	test   %eax,%eax
  5c:	75 29                	jne    87 <main+0x87>
    printf(1, "Process with pid %d has been set to: %d\n", pid, value);
  5e:	53                   	push   %ebx
  5f:	56                   	push   %esi
  60:	68 10 08 00 00       	push   $0x810
  65:	6a 01                	push   $0x1
  67:	e8 f4 03 00 00       	call   460 <printf>
  6c:	83 c4 10             	add    $0x10,%esp
  else
    printf(1, "There is no process with pid %d\n", pid);

  exit();
  6f:	e8 7e 02 00 00       	call   2f2 <exit>
    printf(2, "INVALID PRIORITY VALUE. RANGE: (0~39). \n");
  74:	51                   	push   %ecx
  75:	51                   	push   %ecx
  76:	68 e4 07 00 00       	push   $0x7e4
  7b:	6a 02                	push   $0x2
  7d:	e8 de 03 00 00       	call   460 <printf>
    exit();
  82:	e8 6b 02 00 00       	call   2f2 <exit>
    printf(1, "There is no process with pid %d\n", pid);
  87:	50                   	push   %eax
  88:	56                   	push   %esi
  89:	68 3c 08 00 00       	push   $0x83c
  8e:	6a 01                	push   $0x1
  90:	e8 cb 03 00 00       	call   460 <printf>
  95:	83 c4 10             	add    $0x10,%esp
  98:	eb d5                	jmp    6f <main+0x6f>
  9a:	66 90                	xchg   %ax,%ax
  9c:	66 90                	xchg   %ax,%ax
  9e:	66 90                	xchg   %ax,%ax

000000a0 <strcpy>:
  a0:	55                   	push   %ebp
  a1:	89 e5                	mov    %esp,%ebp
  a3:	53                   	push   %ebx
  a4:	8b 45 08             	mov    0x8(%ebp),%eax
  a7:	8b 4d 0c             	mov    0xc(%ebp),%ecx
  aa:	89 c2                	mov    %eax,%edx
  ac:	8d 74 26 00          	lea    0x0(%esi,%eiz,1),%esi
  b0:	83 c1 01             	add    $0x1,%ecx
  b3:	0f b6 59 ff          	movzbl -0x1(%ecx),%ebx
  b7:	83 c2 01             	add    $0x1,%edx
  ba:	84 db                	test   %bl,%bl
  bc:	88 5a ff             	mov    %bl,-0x1(%edx)
  bf:	75 ef                	jne    b0 <strcpy+0x10>
  c1:	5b                   	pop    %ebx
  c2:	5d                   	pop    %ebp
  c3:	c3                   	ret    
  c4:	8d b6 00 00 00 00    	lea    0x0(%esi),%esi
  ca:	8d bf 00 00 00 00    	lea    0x0(%edi),%edi

000000d0 <strcmp>:
  d0:	55                   	push   %ebp
  d1:	89 e5                	mov    %esp,%ebp
  d3:	53                   	push   %ebx
  d4:	8b 55 08             	mov    0x8(%ebp),%edx
  d7:	8b 4d 0c             	mov    0xc(%ebp),%ecx
  da:	0f b6 02             	movzbl (%edx),%eax
  dd:	0f b6 19             	movzbl (%ecx),%ebx
  e0:	84 c0                	test   %al,%al
  e2:	75 1c                	jne    100 <strcmp+0x30>
  e4:	eb 2a                	jmp    110 <strcmp+0x40>
  e6:	8d 76 00             	lea    0x0(%esi),%esi
  e9:	8d bc 27 00 00 00 00 	lea    0x0(%edi,%eiz,1),%edi
  f0:	83 c2 01             	add    $0x1,%edx
  f3:	0f b6 02             	movzbl (%edx),%eax
  f6:	83 c1 01             	add    $0x1,%ecx
  f9:	0f b6 19             	movzbl (%ecx),%ebx
  fc:	84 c0                	test   %al,%al
  fe:	74 10                	je     110 <strcmp+0x40>
 100:	38 d8                	cmp    %bl,%al
 102:	74 ec                	je     f0 <strcmp+0x20>
 104:	29 d8                	sub    %ebx,%eax
 106:	5b                   	pop    %ebx
 107:	5d                   	pop    %ebp
 108:	c3                   	ret    
 109:	8d b4 26 00 00 00 00 	lea    0x0(%esi,%eiz,1),%esi
 110:	31 c0                	xor    %eax,%eax
 112:	29 d8                	sub    %ebx,%eax
 114:	5b                   	pop    %ebx
 115:	5d                   	pop    %ebp
 116:	c3                   	ret    
 117:	89 f6                	mov    %esi,%esi
 119:	8d bc 27 00 00 00 00 	lea    0x0(%edi,%eiz,1),%edi

00000120 <strlen>:
 120:	55                   	push   %ebp
 121:	89 e5                	mov    %esp,%ebp
 123:	8b 4d 08             	mov    0x8(%ebp),%ecx
 126:	80 39 00             	cmpb   $0x0,(%ecx)
 129:	74 15                	je     140 <strlen+0x20>
 12b:	31 d2                	xor    %edx,%edx
 12d:	8d 76 00             	lea    0x0(%esi),%esi
 130:	83 c2 01             	add    $0x1,%edx
 133:	80 3c 11 00          	cmpb   $0x0,(%ecx,%edx,1)
 137:	89 d0                	mov    %edx,%eax
 139:	75 f5                	jne    130 <strlen+0x10>
 13b:	5d                   	pop    %ebp
 13c:	c3                   	ret    
 13d:	8d 76 00             	lea    0x0(%esi),%esi
 140:	31 c0                	xor    %eax,%eax
 142:	5d                   	pop    %ebp
 143:	c3                   	ret    
 144:	8d b6 00 00 00 00    	lea    0x0(%esi),%esi
 14a:	8d bf 00 00 00 00    	lea    0x0(%edi),%edi

00000150 <memset>:
 150:	55                   	push   %ebp
 151:	89 e5                	mov    %esp,%ebp
 153:	57                   	push   %edi
 154:	8b 55 08             	mov    0x8(%ebp),%edx
 157:	8b 4d 10             	mov    0x10(%ebp),%ecx
 15a:	8b 45 0c             	mov    0xc(%ebp),%eax
 15d:	89 d7                	mov    %edx,%edi
 15f:	fc                   	cld    
 160:	f3 aa                	rep stos %al,%es:(%edi)
 162:	89 d0                	mov    %edx,%eax
 164:	5f                   	pop    %edi
 165:	5d                   	pop    %ebp
 166:	c3                   	ret    
 167:	89 f6                	mov    %esi,%esi
 169:	8d bc 27 00 00 00 00 	lea    0x0(%edi,%eiz,1),%edi

00000170 <strchr>:
 170:	55                   	push   %ebp
 171:	89 e5                	mov    %esp,%ebp
 173:	53                   	push   %ebx
 174:	8b 45 08             	mov    0x8(%ebp),%eax
 177:	8b 5d 0c             	mov    0xc(%ebp),%ebx
 17a:	0f b6 10             	movzbl (%eax),%edx
 17d:	84 d2                	test   %dl,%dl
 17f:	74 1d                	je     19e <strchr+0x2e>
 181:	38 d3                	cmp    %dl,%bl
 183:	89 d9                	mov    %ebx,%ecx
 185:	75 0d                	jne    194 <strchr+0x24>
 187:	eb 17                	jmp    1a0 <strchr+0x30>
 189:	8d b4 26 00 00 00 00 	lea    0x0(%esi,%eiz,1),%esi
 190:	38 ca                	cmp    %cl,%dl
 192:	74 0c                	je     1a0 <strchr+0x30>
 194:	83 c0 01             	add    $0x1,%eax
 197:	0f b6 10             	movzbl (%eax),%edx
 19a:	84 d2                	test   %dl,%dl
 19c:	75 f2                	jne    190 <strchr+0x20>
 19e:	31 c0                	xor    %eax,%eax
 1a0:	5b                   	pop    %ebx
 1a1:	5d                   	pop    %ebp
 1a2:	c3                   	ret    
 1a3:	8d b6 00 00 00 00    	lea    0x0(%esi),%esi
 1a9:	8d bc 27 00 00 00 00 	lea    0x0(%edi,%eiz,1),%edi

000001b0 <gets>:
 1b0:	55                   	push   %ebp
 1b1:	89 e5                	mov    %esp,%ebp
 1b3:	57                   	push   %edi
 1b4:	56                   	push   %esi
 1b5:	53                   	push   %ebx
 1b6:	31 f6                	xor    %esi,%esi
 1b8:	89 f3                	mov    %esi,%ebx
 1ba:	83 ec 1c             	sub    $0x1c,%esp
 1bd:	8b 7d 08             	mov    0x8(%ebp),%edi
 1c0:	eb 2f                	jmp    1f1 <gets+0x41>
 1c2:	8d b6 00 00 00 00    	lea    0x0(%esi),%esi
 1c8:	8d 45 e7             	lea    -0x19(%ebp),%eax
 1cb:	83 ec 04             	sub    $0x4,%esp
 1ce:	6a 01                	push   $0x1
 1d0:	50                   	push   %eax
 1d1:	6a 00                	push   $0x0
 1d3:	e8 32 01 00 00       	call   30a <read>
 1d8:	83 c4 10             	add    $0x10,%esp
 1db:	85 c0                	test   %eax,%eax
 1dd:	7e 1c                	jle    1fb <gets+0x4b>
 1df:	0f b6 45 e7          	movzbl -0x19(%ebp),%eax
 1e3:	83 c7 01             	add    $0x1,%edi
 1e6:	88 47 ff             	mov    %al,-0x1(%edi)
 1e9:	3c 0a                	cmp    $0xa,%al
 1eb:	74 23                	je     210 <gets+0x60>
 1ed:	3c 0d                	cmp    $0xd,%al
 1ef:	74 1f                	je     210 <gets+0x60>
 1f1:	83 c3 01             	add    $0x1,%ebx
 1f4:	3b 5d 0c             	cmp    0xc(%ebp),%ebx
 1f7:	89 fe                	mov    %edi,%esi
 1f9:	7c cd                	jl     1c8 <gets+0x18>
 1fb:	89 f3                	mov    %esi,%ebx
 1fd:	8b 45 08             	mov    0x8(%ebp),%eax
 200:	c6 03 00             	movb   $0x0,(%ebx)
 203:	8d 65 f4             	lea    -0xc(%ebp),%esp
 206:	5b                   	pop    %ebx
 207:	5e                   	pop    %esi
 208:	5f                   	pop    %edi
 209:	5d                   	pop    %ebp
 20a:	c3                   	ret    
 20b:	90                   	nop
 20c:	8d 74 26 00          	lea    0x0(%esi,%eiz,1),%esi
 210:	8b 75 08             	mov    0x8(%ebp),%esi
 213:	8b 45 08             	mov    0x8(%ebp),%eax
 216:	01 de                	add    %ebx,%esi
 218:	89 f3                	mov    %esi,%ebx
 21a:	c6 03 00             	movb   $0x0,(%ebx)
 21d:	8d 65 f4             	lea    -0xc(%ebp),%esp
 220:	5b                   	pop    %ebx
 221:	5e                   	pop    %esi
 222:	5f                   	pop    %edi
 223:	5d                   	pop    %ebp
 224:	c3                   	ret    
 225:	8d 74 26 00          	lea    0x0(%esi,%eiz,1),%esi
 229:	8d bc 27 00 00 00 00 	lea    0x0(%edi,%eiz,1),%edi

00000230 <stat>:
 230:	55                   	push   %ebp
 231:	89 e5                	mov    %esp,%ebp
 233:	56                   	push   %esi
 234:	53                   	push   %ebx
 235:	83 ec 08             	sub    $0x8,%esp
 238:	6a 00                	push   $0x0
 23a:	ff 75 08             	pushl  0x8(%ebp)
 23d:	e8 f0 00 00 00       	call   332 <open>
 242:	83 c4 10             	add    $0x10,%esp
 245:	85 c0                	test   %eax,%eax
 247:	78 27                	js     270 <stat+0x40>
 249:	83 ec 08             	sub    $0x8,%esp
 24c:	ff 75 0c             	pushl  0xc(%ebp)
 24f:	89 c3                	mov    %eax,%ebx
 251:	50                   	push   %eax
 252:	e8 f3 00 00 00       	call   34a <fstat>
 257:	89 1c 24             	mov    %ebx,(%esp)
 25a:	89 c6                	mov    %eax,%esi
 25c:	e8 b9 00 00 00       	call   31a <close>
 261:	83 c4 10             	add    $0x10,%esp
 264:	8d 65 f8             	lea    -0x8(%ebp),%esp
 267:	89 f0                	mov    %esi,%eax
 269:	5b                   	pop    %ebx
 26a:	5e                   	pop    %esi
 26b:	5d                   	pop    %ebp
 26c:	c3                   	ret    
 26d:	8d 76 00             	lea    0x0(%esi),%esi
 270:	be ff ff ff ff       	mov    $0xffffffff,%esi
 275:	eb ed                	jmp    264 <stat+0x34>
 277:	89 f6                	mov    %esi,%esi
 279:	8d bc 27 00 00 00 00 	lea    0x0(%edi,%eiz,1),%edi

00000280 <atoi>:
 280:	55                   	push   %ebp
 281:	89 e5                	mov    %esp,%ebp
 283:	53                   	push   %ebx
 284:	8b 4d 08             	mov    0x8(%ebp),%ecx
 287:	0f be 11             	movsbl (%ecx),%edx
 28a:	8d 42 d0             	lea    -0x30(%edx),%eax
 28d:	3c 09                	cmp    $0x9,%al
 28f:	b8 00 00 00 00       	mov    $0x0,%eax
 294:	77 1f                	ja     2b5 <atoi+0x35>
 296:	8d 76 00             	lea    0x0(%esi),%esi
 299:	8d bc 27 00 00 00 00 	lea    0x0(%edi,%eiz,1),%edi
 2a0:	8d 04 80             	lea    (%eax,%eax,4),%eax
 2a3:	83 c1 01             	add    $0x1,%ecx
 2a6:	8d 44 42 d0          	lea    -0x30(%edx,%eax,2),%eax
 2aa:	0f be 11             	movsbl (%ecx),%edx
 2ad:	8d 5a d0             	lea    -0x30(%edx),%ebx
 2b0:	80 fb 09             	cmp    $0x9,%bl
 2b3:	76 eb                	jbe    2a0 <atoi+0x20>
 2b5:	5b                   	pop    %ebx
 2b6:	5d                   	pop    %ebp
 2b7:	c3                   	ret    
 2b8:	90                   	nop
 2b9:	8d b4 26 00 00 00 00 	lea    0x0(%esi,%eiz,1),%esi

000002c0 <memmove>:
 2c0:	55                   	push   %ebp
 2c1:	89 e5                	mov    %esp,%ebp
 2c3:	56                   	push   %esi
 2c4:	53                   	push   %ebx
 2c5:	8b 5d 10             	mov    0x10(%ebp),%ebx
 2c8:	8b 45 08             	mov    0x8(%ebp),%eax
 2cb:	8b 75 0c             	mov    0xc(%ebp),%esi
 2ce:	85 db                	test   %ebx,%ebx
 2d0:	7e 14                	jle    2e6 <memmove+0x26>
 2d2:	31 d2                	xor    %edx,%edx
 2d4:	8d 74 26 00          	lea    0x0(%esi,%eiz,1),%esi
 2d8:	0f b6 0c 16          	movzbl (%esi,%edx,1),%ecx
 2dc:	88 0c 10             	mov    %cl,(%eax,%edx,1)
 2df:	83 c2 01             	add    $0x1,%edx
 2e2:	39 d3                	cmp    %edx,%ebx
 2e4:	75 f2                	jne    2d8 <memmove+0x18>
 2e6:	5b                   	pop    %ebx
 2e7:	5e                   	pop    %esi
 2e8:	5d                   	pop    %ebp
 2e9:	c3                   	ret    

000002ea <fork>:
 2ea:	b8 01 00 00 00       	mov    $0x1,%eax
 2ef:	cd 40                	int    $0x40
 2f1:	c3                   	ret    

000002f2 <exit>:
 2f2:	b8 02 00 00 00       	mov    $0x2,%eax
 2f7:	cd 40                	int    $0x40
 2f9:	c3                   	ret    

000002fa <wait>:
 2fa:	b8 03 00 00 00       	mov    $0x3,%eax
 2ff:	cd 40                	int    $0x40
 301:	c3                   	ret    

00000302 <pipe>:
 302:	b8 04 00 00 00       	mov    $0x4,%eax
 307:	cd 40                	int    $0x40
 309:	c3                   	ret    

0000030a <read>:
 30a:	b8 05 00 00 00       	mov    $0x5,%eax
 30f:	cd 40                	int    $0x40
 311:	c3                   	ret    

00000312 <write>:
 312:	b8 10 00 00 00       	mov    $0x10,%eax
 317:	cd 40                	int    $0x40
 319:	c3                   	ret    

0000031a <close>:
 31a:	b8 15 00 00 00       	mov    $0x15,%eax
 31f:	cd 40                	int    $0x40
 321:	c3                   	ret    

00000322 <kill>:
 322:	b8 06 00 00 00       	mov    $0x6,%eax
 327:	cd 40                	int    $0x40
 329:	c3                   	ret    

0000032a <exec>:
 32a:	b8 07 00 00 00       	mov    $0x7,%eax
 32f:	cd 40                	int    $0x40
 331:	c3                   	ret    

00000332 <open>:
 332:	b8 0f 00 00 00       	mov    $0xf,%eax
 337:	cd 40                	int    $0x40
 339:	c3                   	ret    

0000033a <mknod>:
 33a:	b8 11 00 00 00       	mov    $0x11,%eax
 33f:	cd 40                	int    $0x40
 341:	c3                   	ret    

00000342 <unlink>:
 342:	b8 12 00 00 00       	mov    $0x12,%eax
 347:	cd 40                	int    $0x40
 349:	c3                   	ret    

0000034a <fstat>:
 34a:	b8 08 00 00 00       	mov    $0x8,%eax
 34f:	cd 40                	int    $0x40
 351:	c3                   	ret    

00000352 <link>:
 352:	b8 13 00 00 00       	mov    $0x13,%eax
 357:	cd 40                	int    $0x40
 359:	c3                   	ret    

0000035a <mkdir>:
 35a:	b8 14 00 00 00       	mov    $0x14,%eax
 35f:	cd 40                	int    $0x40
 361:	c3                   	ret    

00000362 <chdir>:
 362:	b8 09 00 00 00       	mov    $0x9,%eax
 367:	cd 40                	int    $0x40
 369:	c3                   	ret    

0000036a <dup>:
 36a:	b8 0a 00 00 00       	mov    $0xa,%eax
 36f:	cd 40                	int    $0x40
 371:	c3                   	ret    

00000372 <getpid>:
 372:	b8 0b 00 00 00       	mov    $0xb,%eax
 377:	cd 40                	int    $0x40
 379:	c3                   	ret    

0000037a <sbrk>:
 37a:	b8 0c 00 00 00       	mov    $0xc,%eax
 37f:	cd 40                	int    $0x40
 381:	c3                   	ret    

00000382 <sleep>:
 382:	b8 0d 00 00 00       	mov    $0xd,%eax
 387:	cd 40                	int    $0x40
 389:	c3                   	ret    

0000038a <uptime>:
 38a:	b8 0e 00 00 00       	mov    $0xe,%eax
 38f:	cd 40                	int    $0x40
 391:	c3                   	ret    

00000392 <swapread>:
 392:	b8 16 00 00 00       	mov    $0x16,%eax
 397:	cd 40                	int    $0x40
 399:	c3                   	ret    

0000039a <swapwrite>:
 39a:	b8 17 00 00 00       	mov    $0x17,%eax
 39f:	cd 40                	int    $0x40
 3a1:	c3                   	ret    

000003a2 <getnice>:
 3a2:	b8 18 00 00 00       	mov    $0x18,%eax
 3a7:	cd 40                	int    $0x40
 3a9:	c3                   	ret    

000003aa <setnice>:
 3aa:	b8 19 00 00 00       	mov    $0x19,%eax
 3af:	cd 40                	int    $0x40
 3b1:	c3                   	ret    

000003b2 <ps>:
 3b2:	b8 1a 00 00 00       	mov    $0x1a,%eax
 3b7:	cd 40                	int    $0x40
 3b9:	c3                   	ret    
 3ba:	66 90                	xchg   %ax,%ax
 3bc:	66 90                	xchg   %ax,%ax
 3be:	66 90                	xchg   %ax,%ax

000003c0 <printint>:
 3c0:	55                   	push   %ebp
 3c1:	89 e5                	mov    %esp,%ebp
 3c3:	57                   	push   %edi
 3c4:	56                   	push   %esi
 3c5:	53                   	push   %ebx
 3c6:	83 ec 3c             	sub    $0x3c,%esp
 3c9:	85 d2                	test   %edx,%edx
 3cb:	89 45 c0             	mov    %eax,-0x40(%ebp)
 3ce:	89 d0                	mov    %edx,%eax
 3d0:	79 76                	jns    448 <printint+0x88>
 3d2:	f6 45 08 01          	testb  $0x1,0x8(%ebp)
 3d6:	74 70                	je     448 <printint+0x88>
 3d8:	f7 d8                	neg    %eax
 3da:	c7 45 c4 01 00 00 00 	movl   $0x1,-0x3c(%ebp)
 3e1:	31 f6                	xor    %esi,%esi
 3e3:	8d 5d d7             	lea    -0x29(%ebp),%ebx
 3e6:	eb 0a                	jmp    3f2 <printint+0x32>
 3e8:	90                   	nop
 3e9:	8d b4 26 00 00 00 00 	lea    0x0(%esi,%eiz,1),%esi
 3f0:	89 fe                	mov    %edi,%esi
 3f2:	31 d2                	xor    %edx,%edx
 3f4:	8d 7e 01             	lea    0x1(%esi),%edi
 3f7:	f7 f1                	div    %ecx
 3f9:	0f b6 92 68 08 00 00 	movzbl 0x868(%edx),%edx
 400:	85 c0                	test   %eax,%eax
 402:	88 14 3b             	mov    %dl,(%ebx,%edi,1)
 405:	75 e9                	jne    3f0 <printint+0x30>
 407:	8b 45 c4             	mov    -0x3c(%ebp),%eax
 40a:	85 c0                	test   %eax,%eax
 40c:	74 08                	je     416 <printint+0x56>
 40e:	c6 44 3d d8 2d       	movb   $0x2d,-0x28(%ebp,%edi,1)
 413:	8d 7e 02             	lea    0x2(%esi),%edi
 416:	8d 74 3d d7          	lea    -0x29(%ebp,%edi,1),%esi
 41a:	8b 7d c0             	mov    -0x40(%ebp),%edi
 41d:	8d 76 00             	lea    0x0(%esi),%esi
 420:	0f b6 06             	movzbl (%esi),%eax
 423:	83 ec 04             	sub    $0x4,%esp
 426:	83 ee 01             	sub    $0x1,%esi
 429:	6a 01                	push   $0x1
 42b:	53                   	push   %ebx
 42c:	57                   	push   %edi
 42d:	88 45 d7             	mov    %al,-0x29(%ebp)
 430:	e8 dd fe ff ff       	call   312 <write>
 435:	83 c4 10             	add    $0x10,%esp
 438:	39 de                	cmp    %ebx,%esi
 43a:	75 e4                	jne    420 <printint+0x60>
 43c:	8d 65 f4             	lea    -0xc(%ebp),%esp
 43f:	5b                   	pop    %ebx
 440:	5e                   	pop    %esi
 441:	5f                   	pop    %edi
 442:	5d                   	pop    %ebp
 443:	c3                   	ret    
 444:	8d 74 26 00          	lea    0x0(%esi,%eiz,1),%esi
 448:	c7 45 c4 00 00 00 00 	movl   $0x0,-0x3c(%ebp)
 44f:	eb 90                	jmp    3e1 <printint+0x21>
 451:	eb 0d                	jmp    460 <printf>
 453:	90                   	nop
 454:	90                   	nop
 455:	90                   	nop
 456:	90                   	nop
 457:	90                   	nop
 458:	90                   	nop
 459:	90                   	nop
 45a:	90                   	nop
 45b:	90                   	nop
 45c:	90                   	nop
 45d:	90                   	nop
 45e:	90                   	nop
 45f:	90                   	nop

00000460 <printf>:
 460:	55                   	push   %ebp
 461:	89 e5                	mov    %esp,%ebp
 463:	57                   	push   %edi
 464:	56                   	push   %esi
 465:	53                   	push   %ebx
 466:	83 ec 2c             	sub    $0x2c,%esp
 469:	8b 75 0c             	mov    0xc(%ebp),%esi
 46c:	0f b6 1e             	movzbl (%esi),%ebx
 46f:	84 db                	test   %bl,%bl
 471:	0f 84 b3 00 00 00    	je     52a <printf+0xca>
 477:	8d 45 10             	lea    0x10(%ebp),%eax
 47a:	83 c6 01             	add    $0x1,%esi
 47d:	31 ff                	xor    %edi,%edi
 47f:	89 45 d4             	mov    %eax,-0x2c(%ebp)
 482:	eb 2f                	jmp    4b3 <printf+0x53>
 484:	8d 74 26 00          	lea    0x0(%esi,%eiz,1),%esi
 488:	83 f8 25             	cmp    $0x25,%eax
 48b:	0f 84 a7 00 00 00    	je     538 <printf+0xd8>
 491:	8d 45 e2             	lea    -0x1e(%ebp),%eax
 494:	83 ec 04             	sub    $0x4,%esp
 497:	88 5d e2             	mov    %bl,-0x1e(%ebp)
 49a:	6a 01                	push   $0x1
 49c:	50                   	push   %eax
 49d:	ff 75 08             	pushl  0x8(%ebp)
 4a0:	e8 6d fe ff ff       	call   312 <write>
 4a5:	83 c4 10             	add    $0x10,%esp
 4a8:	83 c6 01             	add    $0x1,%esi
 4ab:	0f b6 5e ff          	movzbl -0x1(%esi),%ebx
 4af:	84 db                	test   %bl,%bl
 4b1:	74 77                	je     52a <printf+0xca>
 4b3:	85 ff                	test   %edi,%edi
 4b5:	0f be cb             	movsbl %bl,%ecx
 4b8:	0f b6 c3             	movzbl %bl,%eax
 4bb:	74 cb                	je     488 <printf+0x28>
 4bd:	83 ff 25             	cmp    $0x25,%edi
 4c0:	75 e6                	jne    4a8 <printf+0x48>
 4c2:	83 f8 64             	cmp    $0x64,%eax
 4c5:	0f 84 05 01 00 00    	je     5d0 <printf+0x170>
 4cb:	81 e1 f7 00 00 00    	and    $0xf7,%ecx
 4d1:	83 f9 70             	cmp    $0x70,%ecx
 4d4:	74 72                	je     548 <printf+0xe8>
 4d6:	83 f8 73             	cmp    $0x73,%eax
 4d9:	0f 84 99 00 00 00    	je     578 <printf+0x118>
 4df:	83 f8 63             	cmp    $0x63,%eax
 4e2:	0f 84 08 01 00 00    	je     5f0 <printf+0x190>
 4e8:	83 f8 25             	cmp    $0x25,%eax
 4eb:	0f 84 ef 00 00 00    	je     5e0 <printf+0x180>
 4f1:	8d 45 e7             	lea    -0x19(%ebp),%eax
 4f4:	83 ec 04             	sub    $0x4,%esp
 4f7:	c6 45 e7 25          	movb   $0x25,-0x19(%ebp)
 4fb:	6a 01                	push   $0x1
 4fd:	50                   	push   %eax
 4fe:	ff 75 08             	pushl  0x8(%ebp)
 501:	e8 0c fe ff ff       	call   312 <write>
 506:	83 c4 0c             	add    $0xc,%esp
 509:	8d 45 e6             	lea    -0x1a(%ebp),%eax
 50c:	88 5d e6             	mov    %bl,-0x1a(%ebp)
 50f:	6a 01                	push   $0x1
 511:	50                   	push   %eax
 512:	ff 75 08             	pushl  0x8(%ebp)
 515:	83 c6 01             	add    $0x1,%esi
 518:	31 ff                	xor    %edi,%edi
 51a:	e8 f3 fd ff ff       	call   312 <write>
 51f:	0f b6 5e ff          	movzbl -0x1(%esi),%ebx
 523:	83 c4 10             	add    $0x10,%esp
 526:	84 db                	test   %bl,%bl
 528:	75 89                	jne    4b3 <printf+0x53>
 52a:	8d 65 f4             	lea    -0xc(%ebp),%esp
 52d:	5b                   	pop    %ebx
 52e:	5e                   	pop    %esi
 52f:	5f                   	pop    %edi
 530:	5d                   	pop    %ebp
 531:	c3                   	ret    
 532:	8d b6 00 00 00 00    	lea    0x0(%esi),%esi
 538:	bf 25 00 00 00       	mov    $0x25,%edi
 53d:	e9 66 ff ff ff       	jmp    4a8 <printf+0x48>
 542:	8d b6 00 00 00 00    	lea    0x0(%esi),%esi
 548:	83 ec 0c             	sub    $0xc,%esp
 54b:	b9 10 00 00 00       	mov    $0x10,%ecx
 550:	6a 00                	push   $0x0
 552:	8b 7d d4             	mov    -0x2c(%ebp),%edi
 555:	8b 45 08             	mov    0x8(%ebp),%eax
 558:	8b 17                	mov    (%edi),%edx
 55a:	e8 61 fe ff ff       	call   3c0 <printint>
 55f:	89 f8                	mov    %edi,%eax
 561:	83 c4 10             	add    $0x10,%esp
 564:	31 ff                	xor    %edi,%edi
 566:	83 c0 04             	add    $0x4,%eax
 569:	89 45 d4             	mov    %eax,-0x2c(%ebp)
 56c:	e9 37 ff ff ff       	jmp    4a8 <printf+0x48>
 571:	8d b4 26 00 00 00 00 	lea    0x0(%esi,%eiz,1),%esi
 578:	8b 45 d4             	mov    -0x2c(%ebp),%eax
 57b:	8b 08                	mov    (%eax),%ecx
 57d:	83 c0 04             	add    $0x4,%eax
 580:	89 45 d4             	mov    %eax,-0x2c(%ebp)
 583:	85 c9                	test   %ecx,%ecx
 585:	0f 84 8e 00 00 00    	je     619 <printf+0x1b9>
 58b:	0f b6 01             	movzbl (%ecx),%eax
 58e:	31 ff                	xor    %edi,%edi
 590:	89 cb                	mov    %ecx,%ebx
 592:	84 c0                	test   %al,%al
 594:	0f 84 0e ff ff ff    	je     4a8 <printf+0x48>
 59a:	89 75 d0             	mov    %esi,-0x30(%ebp)
 59d:	89 de                	mov    %ebx,%esi
 59f:	8b 5d 08             	mov    0x8(%ebp),%ebx
 5a2:	8d 7d e3             	lea    -0x1d(%ebp),%edi
 5a5:	8d 76 00             	lea    0x0(%esi),%esi
 5a8:	83 ec 04             	sub    $0x4,%esp
 5ab:	83 c6 01             	add    $0x1,%esi
 5ae:	88 45 e3             	mov    %al,-0x1d(%ebp)
 5b1:	6a 01                	push   $0x1
 5b3:	57                   	push   %edi
 5b4:	53                   	push   %ebx
 5b5:	e8 58 fd ff ff       	call   312 <write>
 5ba:	0f b6 06             	movzbl (%esi),%eax
 5bd:	83 c4 10             	add    $0x10,%esp
 5c0:	84 c0                	test   %al,%al
 5c2:	75 e4                	jne    5a8 <printf+0x148>
 5c4:	8b 75 d0             	mov    -0x30(%ebp),%esi
 5c7:	31 ff                	xor    %edi,%edi
 5c9:	e9 da fe ff ff       	jmp    4a8 <printf+0x48>
 5ce:	66 90                	xchg   %ax,%ax
 5d0:	83 ec 0c             	sub    $0xc,%esp
 5d3:	b9 0a 00 00 00       	mov    $0xa,%ecx
 5d8:	6a 01                	push   $0x1
 5da:	e9 73 ff ff ff       	jmp    552 <printf+0xf2>
 5df:	90                   	nop
 5e0:	83 ec 04             	sub    $0x4,%esp
 5e3:	88 5d e5             	mov    %bl,-0x1b(%ebp)
 5e6:	8d 45 e5             	lea    -0x1b(%ebp),%eax
 5e9:	6a 01                	push   $0x1
 5eb:	e9 21 ff ff ff       	jmp    511 <printf+0xb1>
 5f0:	8b 7d d4             	mov    -0x2c(%ebp),%edi
 5f3:	83 ec 04             	sub    $0x4,%esp
 5f6:	8b 07                	mov    (%edi),%eax
 5f8:	6a 01                	push   $0x1
 5fa:	83 c7 04             	add    $0x4,%edi
 5fd:	88 45 e4             	mov    %al,-0x1c(%ebp)
 600:	8d 45 e4             	lea    -0x1c(%ebp),%eax
 603:	50                   	push   %eax
 604:	ff 75 08             	pushl  0x8(%ebp)
 607:	e8 06 fd ff ff       	call   312 <write>
 60c:	89 7d d4             	mov    %edi,-0x2c(%ebp)
 60f:	83 c4 10             	add    $0x10,%esp
 612:	31 ff                	xor    %edi,%edi
 614:	e9 8f fe ff ff       	jmp    4a8 <printf+0x48>
 619:	bb 60 08 00 00       	mov    $0x860,%ebx
 61e:	b8 28 00 00 00       	mov    $0x28,%eax
 623:	e9 72 ff ff ff       	jmp    59a <printf+0x13a>
 628:	66 90                	xchg   %ax,%ax
 62a:	66 90                	xchg   %ax,%ax
 62c:	66 90                	xchg   %ax,%ax
 62e:	66 90                	xchg   %ax,%ax

00000630 <free>:
 630:	55                   	push   %ebp
 631:	a1 14 0b 00 00       	mov    0xb14,%eax
 636:	89 e5                	mov    %esp,%ebp
 638:	57                   	push   %edi
 639:	56                   	push   %esi
 63a:	53                   	push   %ebx
 63b:	8b 5d 08             	mov    0x8(%ebp),%ebx
 63e:	8d 4b f8             	lea    -0x8(%ebx),%ecx
 641:	8d b4 26 00 00 00 00 	lea    0x0(%esi,%eiz,1),%esi
 648:	39 c8                	cmp    %ecx,%eax
 64a:	8b 10                	mov    (%eax),%edx
 64c:	73 32                	jae    680 <free+0x50>
 64e:	39 d1                	cmp    %edx,%ecx
 650:	72 04                	jb     656 <free+0x26>
 652:	39 d0                	cmp    %edx,%eax
 654:	72 32                	jb     688 <free+0x58>
 656:	8b 73 fc             	mov    -0x4(%ebx),%esi
 659:	8d 3c f1             	lea    (%ecx,%esi,8),%edi
 65c:	39 fa                	cmp    %edi,%edx
 65e:	74 30                	je     690 <free+0x60>
 660:	89 53 f8             	mov    %edx,-0x8(%ebx)
 663:	8b 50 04             	mov    0x4(%eax),%edx
 666:	8d 34 d0             	lea    (%eax,%edx,8),%esi
 669:	39 f1                	cmp    %esi,%ecx
 66b:	74 3a                	je     6a7 <free+0x77>
 66d:	89 08                	mov    %ecx,(%eax)
 66f:	a3 14 0b 00 00       	mov    %eax,0xb14
 674:	5b                   	pop    %ebx
 675:	5e                   	pop    %esi
 676:	5f                   	pop    %edi
 677:	5d                   	pop    %ebp
 678:	c3                   	ret    
 679:	8d b4 26 00 00 00 00 	lea    0x0(%esi,%eiz,1),%esi
 680:	39 d0                	cmp    %edx,%eax
 682:	72 04                	jb     688 <free+0x58>
 684:	39 d1                	cmp    %edx,%ecx
 686:	72 ce                	jb     656 <free+0x26>
 688:	89 d0                	mov    %edx,%eax
 68a:	eb bc                	jmp    648 <free+0x18>
 68c:	8d 74 26 00          	lea    0x0(%esi,%eiz,1),%esi
 690:	03 72 04             	add    0x4(%edx),%esi
 693:	89 73 fc             	mov    %esi,-0x4(%ebx)
 696:	8b 10                	mov    (%eax),%edx
 698:	8b 12                	mov    (%edx),%edx
 69a:	89 53 f8             	mov    %edx,-0x8(%ebx)
 69d:	8b 50 04             	mov    0x4(%eax),%edx
 6a0:	8d 34 d0             	lea    (%eax,%edx,8),%esi
 6a3:	39 f1                	cmp    %esi,%ecx
 6a5:	75 c6                	jne    66d <free+0x3d>
 6a7:	03 53 fc             	add    -0x4(%ebx),%edx
 6aa:	a3 14 0b 00 00       	mov    %eax,0xb14
 6af:	89 50 04             	mov    %edx,0x4(%eax)
 6b2:	8b 53 f8             	mov    -0x8(%ebx),%edx
 6b5:	89 10                	mov    %edx,(%eax)
 6b7:	5b                   	pop    %ebx
 6b8:	5e                   	pop    %esi
 6b9:	5f                   	pop    %edi
 6ba:	5d                   	pop    %ebp
 6bb:	c3                   	ret    
 6bc:	8d 74 26 00          	lea    0x0(%esi,%eiz,1),%esi

000006c0 <malloc>:
 6c0:	55                   	push   %ebp
 6c1:	89 e5                	mov    %esp,%ebp
 6c3:	57                   	push   %edi
 6c4:	56                   	push   %esi
 6c5:	53                   	push   %ebx
 6c6:	83 ec 0c             	sub    $0xc,%esp
 6c9:	8b 45 08             	mov    0x8(%ebp),%eax
 6cc:	8b 15 14 0b 00 00    	mov    0xb14,%edx
 6d2:	8d 78 07             	lea    0x7(%eax),%edi
 6d5:	c1 ef 03             	shr    $0x3,%edi
 6d8:	83 c7 01             	add    $0x1,%edi
 6db:	85 d2                	test   %edx,%edx
 6dd:	0f 84 9d 00 00 00    	je     780 <malloc+0xc0>
 6e3:	8b 02                	mov    (%edx),%eax
 6e5:	8b 48 04             	mov    0x4(%eax),%ecx
 6e8:	39 cf                	cmp    %ecx,%edi
 6ea:	76 6c                	jbe    758 <malloc+0x98>
 6ec:	81 ff 00 10 00 00    	cmp    $0x1000,%edi
 6f2:	bb 00 10 00 00       	mov    $0x1000,%ebx
 6f7:	0f 43 df             	cmovae %edi,%ebx
 6fa:	8d 34 dd 00 00 00 00 	lea    0x0(,%ebx,8),%esi
 701:	eb 0e                	jmp    711 <malloc+0x51>
 703:	90                   	nop
 704:	8d 74 26 00          	lea    0x0(%esi,%eiz,1),%esi
 708:	8b 02                	mov    (%edx),%eax
 70a:	8b 48 04             	mov    0x4(%eax),%ecx
 70d:	39 f9                	cmp    %edi,%ecx
 70f:	73 47                	jae    758 <malloc+0x98>
 711:	39 05 14 0b 00 00    	cmp    %eax,0xb14
 717:	89 c2                	mov    %eax,%edx
 719:	75 ed                	jne    708 <malloc+0x48>
 71b:	83 ec 0c             	sub    $0xc,%esp
 71e:	56                   	push   %esi
 71f:	e8 56 fc ff ff       	call   37a <sbrk>
 724:	83 c4 10             	add    $0x10,%esp
 727:	83 f8 ff             	cmp    $0xffffffff,%eax
 72a:	74 1c                	je     748 <malloc+0x88>
 72c:	89 58 04             	mov    %ebx,0x4(%eax)
 72f:	83 ec 0c             	sub    $0xc,%esp
 732:	83 c0 08             	add    $0x8,%eax
 735:	50                   	push   %eax
 736:	e8 f5 fe ff ff       	call   630 <free>
 73b:	8b 15 14 0b 00 00    	mov    0xb14,%edx
 741:	83 c4 10             	add    $0x10,%esp
 744:	85 d2                	test   %edx,%edx
 746:	75 c0                	jne    708 <malloc+0x48>
 748:	8d 65 f4             	lea    -0xc(%ebp),%esp
 74b:	31 c0                	xor    %eax,%eax
 74d:	5b                   	pop    %ebx
 74e:	5e                   	pop    %esi
 74f:	5f                   	pop    %edi
 750:	5d                   	pop    %ebp
 751:	c3                   	ret    
 752:	8d b6 00 00 00 00    	lea    0x0(%esi),%esi
 758:	39 cf                	cmp    %ecx,%edi
 75a:	74 54                	je     7b0 <malloc+0xf0>
 75c:	29 f9                	sub    %edi,%ecx
 75e:	89 48 04             	mov    %ecx,0x4(%eax)
 761:	8d 04 c8             	lea    (%eax,%ecx,8),%eax
 764:	89 78 04             	mov    %edi,0x4(%eax)
 767:	89 15 14 0b 00 00    	mov    %edx,0xb14
 76d:	8d 65 f4             	lea    -0xc(%ebp),%esp
 770:	83 c0 08             	add    $0x8,%eax
 773:	5b                   	pop    %ebx
 774:	5e                   	pop    %esi
 775:	5f                   	pop    %edi
 776:	5d                   	pop    %ebp
 777:	c3                   	ret    
 778:	90                   	nop
 779:	8d b4 26 00 00 00 00 	lea    0x0(%esi,%eiz,1),%esi
 780:	c7 05 14 0b 00 00 18 	movl   $0xb18,0xb14
 787:	0b 00 00 
 78a:	c7 05 18 0b 00 00 18 	movl   $0xb18,0xb18
 791:	0b 00 00 
 794:	b8 18 0b 00 00       	mov    $0xb18,%eax
 799:	c7 05 1c 0b 00 00 00 	movl   $0x0,0xb1c
 7a0:	00 00 00 
 7a3:	e9 44 ff ff ff       	jmp    6ec <malloc+0x2c>
 7a8:	90                   	nop
 7a9:	8d b4 26 00 00 00 00 	lea    0x0(%esi,%eiz,1),%esi
 7b0:	8b 08                	mov    (%eax),%ecx
 7b2:	89 0a                	mov    %ecx,(%edx)
 7b4:	eb b1                	jmp    767 <malloc+0xa7>
